target datalayout = "e-m:e-p270:32:32-p271:32:32-p272:64:64-i64:64-i128:128-f80:128-n8:16:32:64-S128"
target triple = "x86_64-pc-linux-gnu"

%struct.AVIOContext = type { ptr, ptr, i32, ptr, ptr, ptr, ptr, ptr, ptr, i64, i32, i32, i32, i32, i32, i64, ptr, ptr, ptr, ptr, i32, i32, ptr, ptr, ptr, i32, ptr, i64, i64 }

@.str.8 = private unnamed_addr constant [30 x i8] c"Assertion %s failed at %s:%d\0A\00", align 1
@.str.9 = private unnamed_addr constant [15 x i8] c"!s->write_flag\00", align 1
@.str.10 = private unnamed_addr constant [22 x i8] c"libavformat/aviobuf.c\00", align 1

; Function Attrs: nounwind uwtable
define internal void @update_checksum(ptr noundef %0) #0 {
  %2 = alloca ptr, align 8
  store ptr %0, ptr %2, align 8, !tbaa !14
  %3 = load ptr, ptr %2, align 8, !tbaa !14
  %4 = getelementptr inbounds nuw %struct.AVIOContext, ptr %3, i32 0, i32 17
  %5 = load ptr, ptr %4, align 8, !tbaa !36
  %6 = icmp ne ptr %5, null
  br i1 %6, label %7, label %38

7:                                                ; preds = %1
  %8 = load ptr, ptr %2, align 8, !tbaa !14
  %9 = getelementptr inbounds nuw %struct.AVIOContext, ptr %8, i32 0, i32 3
  %10 = load ptr, ptr %9, align 8, !tbaa !23
  %11 = load ptr, ptr %2, align 8, !tbaa !14
  %12 = getelementptr inbounds nuw %struct.AVIOContext, ptr %11, i32 0, i32 16
  %13 = load ptr, ptr %12, align 8, !tbaa !52
  %14 = icmp ugt ptr %10, %13
  br i1 %14, label %15, label %38

15:                                               ; preds = %7
  %16 = load ptr, ptr %2, align 8, !tbaa !14
  %17 = getelementptr inbounds nuw %struct.AVIOContext, ptr %16, i32 0, i32 17
  %18 = load ptr, ptr %17, align 8, !tbaa !36
  %19 = load ptr, ptr %2, align 8, !tbaa !14
  %20 = getelementptr inbounds nuw %struct.AVIOContext, ptr %19, i32 0, i32 15
  %21 = load i64, ptr %20, align 8, !tbaa !51
  %22 = load ptr, ptr %2, align 8, !tbaa !14
  %23 = getelementptr inbounds nuw %struct.AVIOContext, ptr %22, i32 0, i32 16
  %24 = load ptr, ptr %23, align 8, !tbaa !52
  %25 = load ptr, ptr %2, align 8, !tbaa !14
  %26 = getelementptr inbounds nuw %struct.AVIOContext, ptr %25, i32 0, i32 3
  %27 = load ptr, ptr %26, align 8, !tbaa !23
  %28 = load ptr, ptr %2, align 8, !tbaa !14
  %29 = getelementptr inbounds nuw %struct.AVIOContext, ptr %28, i32 0, i32 16
  %30 = load ptr, ptr %29, align 8, !tbaa !52
  %31 = ptrtoint ptr %27 to i64
  %32 = ptrtoint ptr %30 to i64
  %33 = sub i64 %31, %32
  %34 = trunc i64 %33 to i32
  %35 = call i64 %18(i64 noundef %21, ptr noundef %24, i32 noundef %34)
  %36 = load ptr, ptr %2, align 8, !tbaa !14
  %37 = getelementptr inbounds nuw %struct.AVIOContext, ptr %36, i32 0, i32 15
  store i64 %35, ptr %37, align 8, !tbaa !51
  br label %38

38:                                               ; preds = %15, %7, %1
  ret void
}

; Function Attrs: nounwind uwtable
define i32 @ffio_ensure_seekback(ptr noundef %0, i64 noundef %1) #0 {
  %3 = alloca i32, align 4
  %4 = alloca ptr, align 8
  %5 = alloca i64, align 8
  %6 = alloca ptr, align 8
  %7 = alloca i32, align 4
  %8 = alloca i64, align 8
  %9 = alloca i32, align 4
  store ptr %0, ptr %4, align 8, !tbaa !14
  store i64 %1, ptr %5, align 8, !tbaa !53
  call void @llvm.lifetime.start.p0(i64 8, ptr %6) #12
  call void @llvm.lifetime.start.p0(i64 4, ptr %7) #12
  %10 = load ptr, ptr %4, align 8, !tbaa !14
  %11 = getelementptr inbounds nuw %struct.AVIOContext, ptr %10, i32 0, i32 13
  %12 = load i32, ptr %11, align 4, !tbaa !35
  %13 = icmp ne i32 %12, 0
  br i1 %13, label %14, label %18

14:                                               ; preds = %2
  %15 = load ptr, ptr %4, align 8, !tbaa !14
  %16 = getelementptr inbounds nuw %struct.AVIOContext, ptr %15, i32 0, i32 13
  %17 = load i32, ptr %16, align 4, !tbaa !35
  br label %19

18:                                               ; preds = %2
  br label %19

19:                                               ; preds = %18, %14
  %20 = phi i32 [ %17, %14 ], [ 32768, %18 ]
  store i32 %20, ptr %7, align 4, !tbaa !11
  call void @llvm.lifetime.start.p0(i64 8, ptr %8) #12
  %21 = load ptr, ptr %4, align 8, !tbaa !14
  %22 = getelementptr inbounds nuw %struct.AVIOContext, ptr %21, i32 0, i32 4
  %23 = load ptr, ptr %22, align 8, !tbaa !38
  %24 = load ptr, ptr %4, align 8, !tbaa !14
  %25 = getelementptr inbounds nuw %struct.AVIOContext, ptr %24, i32 0, i32 3
  %26 = load ptr, ptr %25, align 8, !tbaa !23
  %27 = ptrtoint ptr %23 to i64
  %28 = ptrtoint ptr %26 to i64
  %29 = sub i64 %27, %28
  store i64 %29, ptr %8, align 8, !tbaa !53
  %30 = load i64, ptr %5, align 8, !tbaa !53
  %31 = load ptr, ptr %4, align 8, !tbaa !14
  %32 = getelementptr inbounds nuw %struct.AVIOContext, ptr %31, i32 0, i32 4
  %33 = load ptr, ptr %32, align 8, !tbaa !38
  %34 = load ptr, ptr %4, align 8, !tbaa !14
  %35 = getelementptr inbounds nuw %struct.AVIOContext, ptr %34, i32 0, i32 3
  %36 = load ptr, ptr %35, align 8, !tbaa !23
  %37 = ptrtoint ptr %33 to i64
  %38 = ptrtoint ptr %36 to i64
  %39 = sub i64 %37, %38
  %40 = icmp sle i64 %30, %39
  br i1 %40, label %41, label %42

41:                                               ; preds = %19
  store i32 0, ptr %3, align 4
  store i32 1, ptr %9, align 4
  br label %148

42:                                               ; preds = %19
  %43 = load i64, ptr %5, align 8, !tbaa !53
  %44 = load i32, ptr %7, align 4, !tbaa !11
  %45 = sub nsw i32 2147483647, %44
  %46 = sext i32 %45 to i64
  %47 = icmp sgt i64 %43, %46
  br i1 %47, label %48, label %49

48:                                               ; preds = %42
  store i32 -22, ptr %3, align 4
  store i32 1, ptr %9, align 4
  br label %148

49:                                               ; preds = %42
  %50 = load i32, ptr %7, align 4, !tbaa !11
  %51 = sub nsw i32 %50, 1
  %52 = sext i32 %51 to i64
  %53 = load i64, ptr %5, align 8, !tbaa !53
  %54 = add nsw i64 %53, %52
  store i64 %54, ptr %5, align 8, !tbaa !53
  %55 = load i64, ptr %5, align 8, !tbaa !53
  %56 = load ptr, ptr %4, align 8, !tbaa !14
  %57 = getelementptr inbounds nuw %struct.AVIOContext, ptr %56, i32 0, i32 3
  %58 = load ptr, ptr %57, align 8, !tbaa !23
  %59 = getelementptr inbounds i8, ptr %58, i64 %55
  %60 = load ptr, ptr %4, align 8, !tbaa !14
  %61 = getelementptr inbounds nuw %struct.AVIOContext, ptr %60, i32 0, i32 1
  %62 = load ptr, ptr %61, align 8, !tbaa !16
  %63 = ptrtoint ptr %59 to i64
  %64 = ptrtoint ptr %62 to i64
  %65 = sub i64 %63, %64
  %66 = load ptr, ptr %4, align 8, !tbaa !14
  %67 = getelementptr inbounds nuw %struct.AVIOContext, ptr %66, i32 0, i32 2
  %68 = load i32, ptr %67, align 8, !tbaa !20
  %69 = sext i32 %68 to i64
  %70 = icmp sle i64 %65, %69
  br i1 %70, label %81, label %71

71:                                               ; preds = %49
  %72 = load ptr, ptr %4, align 8, !tbaa !14
  %73 = getelementptr inbounds nuw %struct.AVIOContext, ptr %72, i32 0, i32 20
  %74 = load i32, ptr %73, align 8, !tbaa !33
  %75 = icmp ne i32 %74, 0
  br i1 %75, label %81, label %76

76:                                               ; preds = %71
  %77 = load ptr, ptr %4, align 8, !tbaa !14
  %78 = getelementptr inbounds nuw %struct.AVIOContext, ptr %77, i32 0, i32 6
  %79 = load ptr, ptr %78, align 8, !tbaa !28
  %80 = icmp ne ptr %79, null
  br i1 %80, label %82, label %81

81:                                               ; preds = %76, %71, %49
  store i32 0, ptr %3, align 4
  store i32 1, ptr %9, align 4
  br label %148

82:                                               ; preds = %76
  br label %83

83:                                               ; preds = %82
  %84 = load ptr, ptr %4, align 8, !tbaa !14
  %85 = getelementptr inbounds nuw %struct.AVIOContext, ptr %84, i32 0, i32 12
  %86 = load i32, ptr %85, align 8, !tbaa !46
  %87 = icmp ne i32 %86, 0
  br i1 %87, label %88, label %89

88:                                               ; preds = %83
  call void (ptr, i32, ptr, ...) @av_log(ptr noundef null, i32 noundef 0, ptr noundef @.str.8, ptr noundef @.str.9, ptr noundef @.str.10, i32 noundef 1040)
  call void @abort() #15
  unreachable

89:                                               ; preds = %83
  br label %90

90:                                               ; preds = %89
  br label %91

91:                                               ; preds = %90
  %92 = load i64, ptr %5, align 8, !tbaa !53
  %93 = load ptr, ptr %4, align 8, !tbaa !14
  %94 = getelementptr inbounds nuw %struct.AVIOContext, ptr %93, i32 0, i32 2
  %95 = load i32, ptr %94, align 8, !tbaa !20
  %96 = sext i32 %95 to i64
  %97 = icmp sle i64 %92, %96
  br i1 %97, label %98, label %107

98:                                               ; preds = %91
  %99 = load ptr, ptr %4, align 8, !tbaa !14
  call void @update_checksum(ptr noundef %99)
  %100 = load ptr, ptr %4, align 8, !tbaa !14
  %101 = getelementptr inbounds nuw %struct.AVIOContext, ptr %100, i32 0, i32 1
  %102 = load ptr, ptr %101, align 8, !tbaa !16
  %103 = load ptr, ptr %4, align 8, !tbaa !14
  %104 = getelementptr inbounds nuw %struct.AVIOContext, ptr %103, i32 0, i32 3
  %105 = load ptr, ptr %104, align 8, !tbaa !23
  %106 = load i64, ptr %8, align 8, !tbaa !53
  call void @llvm.memmove.p0.p0.i64(ptr align 1 %102, ptr align 1 %105, i64 %106, i1 false)
  br label %130

107:                                              ; preds = %91
  %108 = load i64, ptr %5, align 8, !tbaa !53
  %109 = call noalias ptr @av_malloc(i64 noundef %108)
  store ptr %109, ptr %6, align 8, !tbaa !9
  %110 = load ptr, ptr %6, align 8, !tbaa !9
  %111 = icmp ne ptr %110, null
  br i1 %111, label %113, label %112

112:                                              ; preds = %107
  store i32 -12, ptr %3, align 4
  store i32 1, ptr %9, align 4
  br label %148

113:                                              ; preds = %107
  %114 = load ptr, ptr %4, align 8, !tbaa !14
  call void @update_checksum(ptr noundef %114)
  %115 = load ptr, ptr %6, align 8, !tbaa !9
  %116 = load ptr, ptr %4, align 8, !tbaa !14
  %117 = getelementptr inbounds nuw %struct.AVIOContext, ptr %116, i32 0, i32 3
  %118 = load ptr, ptr %117, align 8, !tbaa !23
  %119 = load i64, ptr %8, align 8, !tbaa !53
  call void @llvm.memcpy.p0.p0.i64(ptr align 1 %115, ptr align 1 %118, i64 %119, i1 false)
  %120 = load ptr, ptr %4, align 8, !tbaa !14
  %121 = getelementptr inbounds nuw %struct.AVIOContext, ptr %120, i32 0, i32 1
  %122 = load ptr, ptr %121, align 8, !tbaa !16
  call void @av_free(ptr noundef %122)
  %123 = load ptr, ptr %6, align 8, !tbaa !9
  %124 = load ptr, ptr %4, align 8, !tbaa !14
  %125 = getelementptr inbounds nuw %struct.AVIOContext, ptr %124, i32 0, i32 1
  store ptr %123, ptr %125, align 8, !tbaa !16
  %126 = load i64, ptr %5, align 8, !tbaa !53
  %127 = trunc i64 %126 to i32
  %128 = load ptr, ptr %4, align 8, !tbaa !14
  %129 = getelementptr inbounds nuw %struct.AVIOContext, ptr %128, i32 0, i32 2
  store i32 %127, ptr %129, align 8, !tbaa !20
  br label %130

130:                                              ; preds = %113, %98
  %131 = load ptr, ptr %4, align 8, !tbaa !14
  %132 = getelementptr inbounds nuw %struct.AVIOContext, ptr %131, i32 0, i32 1
  %133 = load ptr, ptr %132, align 8, !tbaa !16
  %134 = load ptr, ptr %4, align 8, !tbaa !14
  %135 = getelementptr inbounds nuw %struct.AVIOContext, ptr %134, i32 0, i32 3
  store ptr %133, ptr %135, align 8, !tbaa !23
  %136 = load ptr, ptr %4, align 8, !tbaa !14
  %137 = getelementptr inbounds nuw %struct.AVIOContext, ptr %136, i32 0, i32 1
  %138 = load ptr, ptr %137, align 8, !tbaa !16
  %139 = load i64, ptr %8, align 8, !tbaa !53
  %140 = getelementptr inbounds i8, ptr %138, i64 %139
  %141 = load ptr, ptr %4, align 8, !tbaa !14
  %142 = getelementptr inbounds nuw %struct.AVIOContext, ptr %141, i32 0, i32 4
  store ptr %140, ptr %142, align 8, !tbaa !38
  %143 = load ptr, ptr %4, align 8, !tbaa !14
  %144 = getelementptr inbounds nuw %struct.AVIOContext, ptr %143, i32 0, i32 1
  %145 = load ptr, ptr %144, align 8, !tbaa !16
  %146 = load ptr, ptr %4, align 8, !tbaa !14
  %147 = getelementptr inbounds nuw %struct.AVIOContext, ptr %146, i32 0, i32 16
  store ptr %145, ptr %147, align 8, !tbaa !52
  store i32 0, ptr %3, align 4
  store i32 1, ptr %9, align 4
  br label %148

148:                                              ; preds = %130, %112, %81, %48, %41
  call void @llvm.lifetime.end.p0(i64 8, ptr %8) #12
  call void @llvm.lifetime.end.p0(i64 4, ptr %7) #12
  call void @llvm.lifetime.end.p0(i64 8, ptr %6) #12
  %149 = load i32, ptr %3, align 4
  ret i32 %149
}