; Function Attrs: nounwind uwtable
define range(i32 -22, 1) i32 @ffio_ensure_seekback(ptr noundef captures(none) %0, i64 noundef %1) local_unnamed_addr #3 {
  %3 = getelementptr inbounds nuw i8, ptr %0, i64 92
  %4 = load i32, ptr %3, align 4, !tbaa !25
  %.not = icmp eq i32 %4, 0
  %spec.select = select i1 %.not, i32 32768, i32 %4
  %5 = getelementptr inbounds nuw i8, ptr %0, i64 32
  %6 = load ptr, ptr %5, align 8, !tbaa !19
  %7 = getelementptr inbounds nuw i8, ptr %0, i64 24
  %8 = load ptr, ptr %7, align 8, !tbaa !16
  %9 = ptrtoint ptr %6 to i64
  %10 = ptrtoint ptr %8 to i64
  %11 = sub i64 %9, %10
  %.not48 = icmp sgt i64 %1, %11
  br i1 %.not48, label %12, label %80

12:                                               ; preds = %2
  %13 = sub nsw i32 2147483647, %spec.select
  %14 = zext nneg i32 %13 to i64
  %15 = icmp sgt i64 %1, %14
  br i1 %15, label %80, label %16

16:                                               ; preds = %12
  %17 = add nsw i32 %spec.select, -1
  %18 = sext i32 %17 to i64
  %19 = add nsw i64 %1, %18
  %20 = getelementptr inbounds i8, ptr %8, i64 %19
  %21 = getelementptr inbounds nuw i8, ptr %0, i64 8
  %22 = load ptr, ptr %21, align 8, !tbaa !4
  %23 = ptrtoint ptr %20 to i64
  %24 = ptrtoint ptr %22 to i64
  %25 = sub i64 %23, %24
  %26 = getelementptr inbounds nuw i8, ptr %0, i64 16
  %27 = load i32, ptr %26, align 8, !tbaa !13
  %28 = sext i32 %27 to i64
  %.not49 = icmp sgt i64 %25, %28
  br i1 %.not49, label %29, label %80

29:                                               ; preds = %16
  %30 = getelementptr inbounds nuw i8, ptr %0, i64 144
  %31 = load i32, ptr %30, align 8, !tbaa !24
  %.not50 = icmp eq i32 %31, 0
  br i1 %.not50, label %32, label %80

32:                                               ; preds = %29
  %33 = getelementptr inbounds nuw i8, ptr %0, i64 48
  %34 = load ptr, ptr %33, align 8, !tbaa !22
  %.not51 = icmp eq ptr %34, null
  br i1 %.not51, label %80, label %35

35:                                               ; preds = %32
  %36 = getelementptr inbounds nuw i8, ptr %0, i64 88
  %37 = load i32, ptr %36, align 8, !tbaa !20
  %.not52 = icmp eq i32 %37, 0
  br i1 %.not52, label %39, label %38

38:                                               ; preds = %35
  tail call void (ptr, i32, ptr, ...) @av_log(ptr noundef null, i32 noundef 0, ptr noundef nonnull @.str.8, ptr noundef nonnull @.str.9, ptr noundef nonnull @.str.10, i32 noundef 1040) #14
  tail call void @abort() #16
  unreachable

39:                                               ; preds = %35
  %.not53 = icmp sgt i64 %19, %28
  br i1 %.not53, label %56, label %40

40:                                               ; preds = %39
  %41 = getelementptr inbounds nuw i8, ptr %0, i64 120
  %42 = load ptr, ptr %41, align 8, !tbaa !39
  %.not.i = icmp eq ptr %42, null
  br i1 %.not.i, label %update_checksum.exit, label %43

43:                                               ; preds = %40
  %44 = getelementptr inbounds nuw i8, ptr %0, i64 112
  %45 = load ptr, ptr %44, align 8, !tbaa !41
  %46 = icmp ugt ptr %8, %45
  br i1 %46, label %47, label %update_checksum.exit

47:                                               ; preds = %43
  %48 = getelementptr inbounds nuw i8, ptr %0, i64 104
  %49 = load i64, ptr %48, align 8, !tbaa !40
  %50 = ptrtoint ptr %45 to i64
  %51 = sub i64 %10, %50
  %52 = trunc i64 %51 to i32
  %53 = tail call i64 %42(i64 noundef %49, ptr noundef %45, i32 noundef %52) #14
  store i64 %53, ptr %48, align 8, !tbaa !40
  %.pre = load ptr, ptr %21, align 8, !tbaa !4
  %.pre57 = load ptr, ptr %7, align 8, !tbaa !16
  br label %update_checksum.exit

update_checksum.exit:                             ; preds = %40, %43, %47
  %54 = phi ptr [ %8, %40 ], [ %8, %43 ], [ %.pre57, %47 ]
  %55 = phi ptr [ %22, %40 ], [ %22, %43 ], [ %.pre, %47 ]
  tail call void @llvm.memmove.p0.p0.i64(ptr align 1 %55, ptr align 1 %54, i64 %11, i1 false)
  %.pre60 = load ptr, ptr %21, align 8, !tbaa !4
  br label %76

56:                                               ; preds = %39
  %57 = tail call noalias ptr @av_malloc(i64 noundef %19) #14
  %.not54 = icmp eq ptr %57, null
  br i1 %.not54, label %80, label %58

58:                                               ; preds = %56
  %59 = getelementptr inbounds nuw i8, ptr %0, i64 120
  %60 = load ptr, ptr %59, align 8, !tbaa !39
  %.not.i55 = icmp eq ptr %60, null
  %.pre59 = load ptr, ptr %7, align 8, !tbaa !16
  br i1 %.not.i55, label %update_checksum.exit56, label %61

61:                                               ; preds = %58
  %62 = getelementptr inbounds nuw i8, ptr %0, i64 112
  %63 = load ptr, ptr %62, align 8, !tbaa !41
  %64 = icmp ugt ptr %.pre59, %63
  br i1 %64, label %65, label %update_checksum.exit56

65:                                               ; preds = %61
  %66 = getelementptr inbounds nuw i8, ptr %0, i64 104
  %67 = load i64, ptr %66, align 8, !tbaa !40
  %68 = ptrtoint ptr %.pre59 to i64
  %69 = ptrtoint ptr %63 to i64
  %70 = sub i64 %68, %69
  %71 = trunc i64 %70 to i32
  %72 = tail call i64 %60(i64 noundef %67, ptr noundef %63, i32 noundef %71) #14
  store i64 %72, ptr %66, align 8, !tbaa !40
  %.pre58 = load ptr, ptr %7, align 8, !tbaa !16
  br label %update_checksum.exit56

update_checksum.exit56:                           ; preds = %58, %61, %65
  %73 = phi ptr [ %.pre59, %58 ], [ %.pre59, %61 ], [ %.pre58, %65 ]
  tail call void @llvm.memcpy.p0.p0.i64(ptr nonnull align 1 %57, ptr align 1 %73, i64 %11, i1 false)
  %74 = load ptr, ptr %21, align 8, !tbaa !4
  tail call void @av_free(ptr noundef %74) #14
  store ptr %57, ptr %21, align 8, !tbaa !4
  %75 = trunc i64 %19 to i32
  store i32 %75, ptr %26, align 8, !tbaa !13
  br label %76

76:                                               ; preds = %update_checksum.exit56, %update_checksum.exit
  %77 = phi ptr [ %57, %update_checksum.exit56 ], [ %.pre60, %update_checksum.exit ]
  store ptr %77, ptr %7, align 8, !tbaa !16
  %78 = getelementptr inbounds i8, ptr %77, i64 %11
  store ptr %78, ptr %5, align 8, !tbaa !19
  %79 = getelementptr inbounds nuw i8, ptr %0, i64 112
  store ptr %77, ptr %79, align 8, !tbaa !41
  br label %80

80:                                               ; preds = %56, %16, %29, %32, %12, %2, %76
  %.0 = phi i32 [ 0, %76 ], [ 0, %2 ], [ -22, %12 ], [ 0, %32 ], [ 0, %29 ], [ 0, %16 ], [ -12, %56 ]
  ret i32 %.0
}